target datalayout = "e-m:e-p270:32:32-p271:32:32-p272:64:64-i64:64-i128:128-f80:128-n8:16:32:64-S128"
target triple = "x86_64-pc-linux-gnu"

%"struct.std::nothrow_t" = type { i8 }

@_ZSt7nothrow = external global %"struct.std::nothrow_t", align 1
@stderr = external global ptr, align 8
@.str.1 = private unnamed_addr constant [103 x i8] c"generated/home/dtcxzyw/WorkSpace/Projects/compilers/llvm-opt-benchmark/bench/libzmq/libzmq/src/zmq.cpp\00", align 1
@.str.5 = private unnamed_addr constant [36 x i8] c"FATAL ERROR: OUT OF MEMORY (%s:%d)\0A\00", align 1
@.str.6 = private unnamed_addr constant [27 x i8] c"FATAL ERROR: OUT OF MEMORY\00", align 1

; Function Attrs: mustprogress uwtable
define ptr @zmq_timers_new() #1 personality ptr @__gxx_personality_v0 {
  %1 = alloca ptr, align 8
  %2 = alloca i1, align 1
  %3 = alloca ptr, align 8
  %4 = alloca i32, align 4
  call void @llvm.lifetime.start.p0(i64 8, ptr %1) #20
  %5 = call noalias noundef ptr @_ZnwmRKSt9nothrow_t(i64 noundef 120, ptr noundef nonnull align 1 dereferenceable(1) @_ZSt7nothrow) #21
  %6 = icmp eq ptr %5, null
  store i1 false, ptr %2, align 1
  br i1 %6, label %9, label %7

7:                                                ; preds = %0
  store i1 true, ptr %2, align 1
  invoke void @_ZN3zmq8timers_tC1Ev(ptr noundef nonnull align 8 dereferenceable(120) %5)
          to label %8 unwind label %23

8:                                                ; preds = %7
  br label %9

9:                                                ; preds = %8, %0
  %10 = phi ptr [ %5, %8 ], [ null, %0 ]
  store ptr %10, ptr %1, align 8, !tbaa !115
  br label %11

11:                                               ; preds = %9
  %12 = load ptr, ptr %1, align 8, !tbaa !115
  %13 = icmp ne ptr %12, null
  %14 = xor i1 %13, true
  %15 = zext i1 %14 to i64
  %16 = call i64 @llvm.expect.i64(i64 %15, i64 0)
  %17 = icmp ne i64 %16, 0
  br i1 %17, label %18, label %30

18:                                               ; preds = %11
  %19 = load ptr, ptr @stderr, align 8, !tbaa !25
  %20 = call i32 (ptr, ptr, ...) @fprintf(ptr noundef %19, ptr noundef @.str.5, ptr noundef @.str.1, i32 noundef 1643) #20
  %21 = load ptr, ptr @stderr, align 8, !tbaa !25
  %22 = call i32 @fflush(ptr noundef %21)
  call void @_ZN3zmq9zmq_abortEPKc(ptr noundef @.str.6)
  br label %30

23:                                               ; preds = %7
  %24 = landingpad { ptr, i32 }
          cleanup
  %25 = extractvalue { ptr, i32 } %24, 0
  store ptr %25, ptr %3, align 8
  %26 = extractvalue { ptr, i32 } %24, 1
  store i32 %26, ptr %4, align 4
  %27 = load i1, ptr %2, align 1
  br i1 %27, label %28, label %29

28:                                               ; preds = %23
  call void @_ZdlPvRKSt9nothrow_t(ptr noundef %5, ptr noundef nonnull align 1 dereferenceable(1) @_ZSt7nothrow) #22
  br label %29

29:                                               ; preds = %28, %23
  call void @llvm.lifetime.end.p0(i64 8, ptr %1) #20
  br label %34

30:                                               ; preds = %18, %11
  br label %31

31:                                               ; preds = %30
  br label %32

32:                                               ; preds = %31
  %33 = load ptr, ptr %1, align 8, !tbaa !115
  call void @llvm.lifetime.end.p0(i64 8, ptr %1) #20
  ret ptr %33

34:                                               ; preds = %29
  %35 = load ptr, ptr %3, align 8
  %36 = load i32, ptr %4, align 4
  %37 = insertvalue { ptr, i32 } poison, ptr %35, 0
  %38 = insertvalue { ptr, i32 } %37, i32 %36, 1
  resume { ptr, i32 } %38
}