; Function Attrs: mustprogress uwtable
define noundef ptr @zmq_timers_new() local_unnamed_addr #1 personality ptr @__gxx_personality_v0 {
  %1 = tail call noalias noundef dereferenceable_or_null(120) ptr @_ZnwmRKSt9nothrow_t(i64 noundef 120, ptr noundef nonnull align 1 dereferenceable(1) @_ZSt7nothrow) #21
  %2 = icmp eq ptr %1, null
  br i1 %2, label %4, label %3

3:                                                ; preds = %0
  invoke void @_ZN3zmq8timers_tC1Ev(ptr noundef nonnull align 8 dereferenceable(120) %1)
          to label %11 unwind label %9

4:                                                ; preds = %0
  %5 = load ptr, ptr @stderr, align 8, !tbaa !11
  %6 = tail call i32 (ptr, ptr, ...) @fprintf(ptr noundef %5, ptr noundef nonnull @.str.5, ptr noundef nonnull @.str.1, i32 noundef 1643) #24
  %7 = load ptr, ptr @stderr, align 8, !tbaa !11
  %8 = tail call i32 @fflush(ptr noundef %7)
  tail call void @_ZN3zmq9zmq_abortEPKc(ptr noundef nonnull @.str.6)
  br label %11

9:                                                ; preds = %3
  %10 = landingpad { ptr, i32 }
          cleanup
  tail call void @_ZdlPvRKSt9nothrow_t(ptr noundef nonnull %1, ptr noundef nonnull align 1 dereferenceable(1) @_ZSt7nothrow) #23
  resume { ptr, i32 } %10

11:                                               ; preds = %3, %4
  ret ptr %1
}